; Function Attrs: nounwind uwtable
define hidden noundef i32 @phpdbg_do_frame(ptr noundef readonly %0) #0 {
  %.not = icmp eq ptr %0, null
  br i1 %.not, label %2, label %6

2:                                                ; preds = %1
  %3 = load i32, ptr getelementptr inbounds (%struct._zend_phpdbg_globals, ptr @phpdbg_globals, i64 0, i32 39, i64 1), align 4
  %4 = load i32, ptr getelementptr inbounds (%struct._zend_phpdbg_globals, ptr @phpdbg_globals, i64 0, i32 5), align 8
  %5 = tail call i32 (i32, i32, ptr, ...) @phpdbg_print(i32 noundef 2, i32 noundef %3, ptr noundef nonnull @.str.87, i32 noundef %4) #24
  br label %10

6:                                                ; preds = %1
  %7 = getelementptr inbounds i8, ptr %0, i64 8
  %8 = load i64, ptr %7, align 8
  %9 = trunc i64 %8 to i32
  tail call void @phpdbg_switch_frame(i32 noundef %9) #24
  br label %10

10:                                               ; preds = %6, %2
  ret i32 0
}